Certificate:
    Data:
        Version: 3 (0x2)
        Serial Number:
            0f:f3:ed:95:22:4c:2c:00:bc:12:2c:41:79:10:36:34
        Signature Algorithm: sha512WithRSAEncryption
        Issuer: CN=ENAC CA
        Validity
            Not Before: Nov 29 13:47:59 2022 GMT
            Not After : Nov 13 13:47:59 2025 GMT
        Subject: C=FR, ST=France, L=Toulouse, O=ENAC, OU=ReSCo, CN=portail.enac.fr/emailAddress=demo.jpo@enac.fr
        Subject Public Key Info:
            Public Key Algorithm: rsaEncryption
                RSA Public-Key: (2048 bit)
                Modulus:
                    00:9a:4b:53:55:4e:88:e0:f1:aa:da:77:7b:a2:41:
                    0b:bf:b3:92:81:0b:65:c0:af:b2:9f:1c:3a:04:6a:
                    7f:cd:7f:ee:8e:e4:8c:4e:30:3d:05:e9:79:85:c2:
                    23:ab:82:ff:77:32:7b:cc:fa:74:e9:8a:f3:d2:05:
                    83:08:8a:eb:4b:c4:ed:1f:eb:e1:80:50:6a:97:52:
                    02:92:bd:3e:bb:ab:71:2e:ca:0b:8b:fc:3e:77:6b:
                    0c:30:24:4b:36:f9:2d:36:8e:78:2b:94:d2:30:d0:
                    9e:65:79:f5:b9:0d:69:77:4b:34:ba:74:59:08:fc:
                    ba:02:13:b8:33:5c:44:24:dd:03:3d:3b:6c:6f:a9:
                    68:cd:ee:89:87:b0:f2:b7:d3:f1:8f:71:ed:16:42:
                    fa:7a:26:84:dd:30:f7:17:4b:38:fb:a0:76:72:29:
                    a1:a1:3b:23:4e:a7:af:7c:bb:23:b4:2a:cb:2d:61:
                    4a:8d:48:33:c3:bb:f1:61:fa:6b:3b:01:9f:68:32:
                    d6:d5:a8:f9:a6:fb:4c:7e:27:4f:b0:3e:c0:2f:8f:
                    ad:2f:9d:f5:61:ee:e3:5a:40:71:f7:55:b1:21:ee:
                    94:30:e1:3f:39:9e:be:ae:5d:51:9d:05:80:c8:b3:
                    c3:83:a0:f8:56:30:49:b4:7b:0c:52:c4:a7:e1:bf:
                    a9:b1
                Exponent: 65537 (0x10001)
        X509v3 extensions:
            X509v3 Basic Constraints: 
                CA:FALSE
            X509v3 Subject Key Identifier: 
                97:13:D3:38:98:10:D5:54:1B:32:CB:E1:32:B4:54:D8:1E:63:29:D6
            X509v3 Authority Key Identifier: 
                keyid:D3:24:3A:A2:6D:BB:0A:8F:CD:3C:7E:77:BB:1D:F3:F9:B7:88:64:B4
                DirName:/CN=ENAC CA
                serial:3B:DD:6A:31:CC:3A:22:19:19:AE:B6:B5:16:7B:D5:07:A9:8F:12:4E

            X509v3 Extended Key Usage: 
                TLS Web Server Authentication
            X509v3 Key Usage: 
                Digital Signature, Key Encipherment
            X509v3 Subject Alternative Name: 
                DNS:portail.enac.fr
    Signature Algorithm: sha512WithRSAEncryption
         53:5f:fc:d2:83:78:78:ae:fb:8f:64:4c:7b:61:31:91:cb:ee:
         d0:92:b2:ed:d3:1c:b3:3f:ea:cf:c8:bd:37:d2:de:17:fe:e1:
         0f:d0:c5:b7:c2:04:f9:38:e5:96:21:d0:52:48:e0:ab:5d:66:
         0c:dd:7b:f9:da:47:c5:e2:fa:f9:4c:66:5a:c8:d3:f9:58:52:
         c8:50:da:f0:29:b8:b2:f9:fb:bb:de:f6:41:31:5c:e3:7d:0d:
         ac:33:e0:46:66:ae:56:2f:36:a6:64:99:79:3c:ad:6c:4f:25:
         5c:b8:db:a3:f9:e5:c8:63:04:26:21:61:e1:48:81:bb:48:1e:
         71:93:ad:d9:87:42:bd:57:bc:cd:5c:0a:f6:70:35:09:0a:ee:
         3a:53:d4:4e:fc:df:6c:a2:9d:5f:5b:51:bd:91:e4:95:8e:29:
         ec:34:e1:be:20:65:c0:d1:55:c4:50:45:bf:92:ce:a7:01:da:
         3d:d8:60:b1:96:c7:c2:0c:5c:e7:d3:60:59:f3:47:ba:ff:a4:
         00:92:0c:fe:35:1c:9a:07:81:d3:95:9a:2f:7b:1d:3b:6e:e9:
         6e:c7:68:af:3c:ac:1f:ae:b0:a2:6c:2c:cb:70:9b:cb:b9:f4:
         85:ce:7e:c8:56:25:8c:a8:2b:18:4f:f0:d7:0f:d8:7d:31:4b:
         70:fc:c2:22
-----BEGIN CERTIFICATE-----
MIID4zCCAsugAwIBAgIQD/PtlSJMLAC8EixBeRA2NDANBgkqhkiG9w0BAQ0FADAS
MRAwDgYDVQQDDAdFTkFDIENBMB4XDTIyMTEyOTEzNDc1OVoXDTI1MTExMzEzNDc1
OVowgYsxCzAJBgNVBAYTAkZSMQ8wDQYDVQQIDAZGcmFuY2UxETAPBgNVBAcMCFRv
dWxvdXNlMQ0wCwYDVQQKDARFTkFDMQ4wDAYDVQQLDAVSZVNDbzEYMBYGA1UEAwwP
cG9ydGFpbC5lbmFjLmZyMR8wHQYJKoZIhvcNAQkBFhBkZW1vLmpwb0BlbmFjLmZy
MIIBIjANBgkqhkiG9w0BAQEFAAOCAQ8AMIIBCgKCAQEAmktTVU6I4PGq2nd7okEL
v7OSgQtlwK+ynxw6BGp/zX/ujuSMTjA9Bel5hcIjq4L/dzJ7zPp06Yrz0gWDCIrr
S8TtH+vhgFBql1ICkr0+u6txLsoLi/w+d2sMMCRLNvktNo54K5TSMNCeZXn1uQ1p
d0s0unRZCPy6AhO4M1xEJN0DPTtsb6loze6Jh7Dyt9Pxj3HtFkL6eiaE3TD3F0s4
+6B2cimhoTsjTqevfLsjtCrLLWFKjUgzw7vxYfprOwGfaDLW1aj5pvtMfidPsD7A
L4+tL531Ye7jWkBx91WxIe6UMOE/OZ6+rl1RnQWAyLPDg6D4VjBJtHsMUsSn4b+p
sQIDAQABo4G6MIG3MAkGA1UdEwQCMAAwHQYDVR0OBBYEFJcT0ziYENVUGzLL4TK0
VNgeYynWME0GA1UdIwRGMESAFNMkOqJtuwqPzTx+d7sd8/m3iGS0oRakFDASMRAw
DgYDVQQDDAdFTkFDIENBghQ73WoxzDoiGRmutrUWe9UHqY8STjATBgNVHSUEDDAK
BggrBgEFBQcDATALBgNVHQ8EBAMCBaAwGgYDVR0RBBMwEYIPcG9ydGFpbC5lbmFj
LmZyMA0GCSqGSIb3DQEBDQUAA4IBAQBTX/zSg3h4rvuPZEx7YTGRy+7QkrLt0xyz
P+rPyL030t4X/uEP0MW3wgT5OOWWIdBSSOCrXWYM3Xv52kfF4vr5TGZayNP5WFLI
UNrwKbiy+fu73vZBMVzjfQ2sM+BGZq5WLzamZJl5PK1sTyVcuNuj+eXIYwQmIWHh
SIG7SB5xk63Zh0K9V7zNXAr2cDUJCu46U9RO/N9sop1fW1G9keSVjinsNOG+IGXA
0VXEUEW/ks6nAdo92GCxlsfCDFzn02BZ80e6/6QAkgz+NRyaB4HTlZovex07bulu
x2ivPKwfrrCibCzLcJvLufSFzn7IViWMqCsYT/DXD9h9MUtw/MIi
-----END CERTIFICATE-----
