Certificate:
    Data:
        Version: 3 (0x2)
        Serial Number:
            38:25:5a:de:20:b9:c5:e1:fa:56:f6:ed:61:d9:4e:dc
        Signature Algorithm: sha512WithRSAEncryption
        Issuer: CN=ENAC CA
        Validity
            Not Before: Nov 29 13:29:58 2022 GMT
            Not After : Nov 13 13:29:58 2025 GMT
        Subject: C=FR, ST=France, L=Toulouse, O=ENAC, OU=ReSCo, CN=secureserver
        Subject Public Key Info:
            Public Key Algorithm: rsaEncryption
                RSA Public-Key: (2048 bit)
                Modulus:
                    00:b5:fb:0c:41:99:e7:da:ba:25:39:20:b1:72:21:
                    35:71:4f:d1:d2:17:b9:13:02:1c:5c:63:9b:28:d6:
                    0e:09:03:76:b7:13:8b:e6:d1:89:27:e6:4a:5b:95:
                    29:96:e4:b5:77:37:21:fd:15:53:fe:f1:0c:77:3f:
                    70:29:d9:a7:8e:bb:1f:ac:fe:a9:e2:08:43:e2:25:
                    39:fa:12:b4:05:8b:b0:c6:2e:e9:fd:36:12:b9:22:
                    6a:aa:c5:ff:47:95:f9:44:36:8b:8b:12:d4:f7:1b:
                    e2:f1:3a:06:61:4f:d1:3a:64:4f:68:05:bb:69:2e:
                    8e:1a:78:e9:49:12:19:bb:2e:23:35:86:fb:8b:95:
                    16:77:3f:07:24:0c:39:7f:a0:f1:44:d1:8b:b0:b3:
                    9b:ec:16:53:ea:28:10:98:59:a2:ab:97:eb:81:17:
                    f5:29:86:fb:c5:6c:36:e3:11:73:26:d4:bf:4a:df:
                    f7:6f:ef:6b:76:c3:14:fd:59:4d:b0:70:12:91:4f:
                    88:f8:b3:bf:31:43:b2:51:8b:38:2a:74:3f:0c:14:
                    9d:ac:16:6b:01:e4:93:ff:fa:d1:62:90:a4:4e:a9:
                    dc:f5:6a:b4:48:0f:f4:73:d6:ae:9b:d3:ac:5c:40:
                    84:45:1e:c3:dc:21:8c:76:55:e5:f7:cb:ea:1f:d8:
                    2f:ad
                Exponent: 65537 (0x10001)
        X509v3 extensions:
            X509v3 Basic Constraints: 
                CA:FALSE
            X509v3 Subject Key Identifier: 
                36:B9:8A:D6:27:21:DA:D2:56:60:2A:CF:2C:B9:D3:52:D8:33:F4:C3
            X509v3 Authority Key Identifier: 
                keyid:D3:24:3A:A2:6D:BB:0A:8F:CD:3C:7E:77:BB:1D:F3:F9:B7:88:64:B4
                DirName:/CN=ENAC CA
                serial:3B:DD:6A:31:CC:3A:22:19:19:AE:B6:B5:16:7B:D5:07:A9:8F:12:4E

            X509v3 Extended Key Usage: 
                TLS Web Server Authentication
            X509v3 Key Usage: 
                Digital Signature, Key Encipherment
            X509v3 Subject Alternative Name: 
                DNS:secureserver
    Signature Algorithm: sha512WithRSAEncryption
         47:a0:30:9a:c9:84:a6:59:e4:93:e5:1b:a0:c8:9c:36:04:e3:
         92:bc:e7:ea:df:5e:51:9a:3a:34:24:8f:75:72:a0:c3:30:44:
         69:1b:5e:83:90:dd:f6:1d:57:5a:fb:1e:28:4c:b1:fe:8b:e5:
         44:48:43:c8:58:f0:ce:a5:d2:81:32:6c:f5:b4:21:d8:27:89:
         a7:f9:4d:bd:fb:d7:7b:28:d0:6a:00:06:2a:eb:0a:bf:f7:24:
         44:11:79:56:27:dd:5c:c4:c9:f7:2c:e6:11:06:cf:80:a5:86:
         78:2c:bb:fc:21:52:71:3b:2c:94:0d:73:2f:1c:cd:46:03:9d:
         78:37:f1:96:6a:2a:ab:62:36:c3:2e:7c:51:70:5e:53:a7:30:
         e9:0c:2e:4b:10:f8:de:b5:3e:3d:20:4f:c4:f3:85:f7:cf:cf:
         c9:bd:da:85:a5:ff:d1:bc:0c:f9:a3:e1:0e:af:03:86:ba:95:
         1a:f7:53:c9:f9:7b:f4:6b:ed:70:00:97:a1:ee:8d:ed:2e:cd:
         d9:69:25:6d:b4:22:01:02:ad:31:71:14:b4:85:1d:74:81:a9:
         3d:df:a2:14:e9:0a:33:ca:f7:34:b8:b6:da:4a:18:1f:da:0e:
         9a:73:46:5b:54:bd:f7:4a:79:a4:31:08:17:10:4b:a0:1a:c5:
         09:43:ff:99
-----BEGIN CERTIFICATE-----
MIIDuzCCAqOgAwIBAgIQOCVa3iC5xeH6VvbtYdlO3DANBgkqhkiG9w0BAQ0FADAS
MRAwDgYDVQQDDAdFTkFDIENBMB4XDTIyMTEyOTEzMjk1OFoXDTI1MTExMzEzMjk1
OFowZzELMAkGA1UEBhMCRlIxDzANBgNVBAgMBkZyYW5jZTERMA8GA1UEBwwIVG91
bG91c2UxDTALBgNVBAoMBEVOQUMxDjAMBgNVBAsMBVJlU0NvMRUwEwYDVQQDDAxz
ZWN1cmVzZXJ2ZXIwggEiMA0GCSqGSIb3DQEBAQUAA4IBDwAwggEKAoIBAQC1+wxB
mefauiU5ILFyITVxT9HSF7kTAhxcY5so1g4JA3a3E4vm0Ykn5kpblSmW5LV3NyH9
FVP+8Qx3P3Ap2aeOux+s/qniCEPiJTn6ErQFi7DGLun9NhK5Imqqxf9HlflENouL
EtT3G+LxOgZhT9E6ZE9oBbtpLo4aeOlJEhm7LiM1hvuLlRZ3PwckDDl/oPFE0Yuw
s5vsFlPqKBCYWaKrl+uBF/UphvvFbDbjEXMm1L9K3/dv72t2wxT9WU2wcBKRT4j4
s78xQ7JRizgqdD8MFJ2sFmsB5JP/+tFikKROqdz1arRID/Rz1q6b06xcQIRFHsPc
IYx2VeX3y+of2C+tAgMBAAGjgbcwgbQwCQYDVR0TBAIwADAdBgNVHQ4EFgQUNrmK
1ich2tJWYCrPLLnTUtgz9MMwTQYDVR0jBEYwRIAU0yQ6om27Co/NPH53ux3z+beI
ZLShFqQUMBIxEDAOBgNVBAMMB0VOQUMgQ0GCFDvdajHMOiIZGa62tRZ71QepjxJO
MBMGA1UdJQQMMAoGCCsGAQUFBwMBMAsGA1UdDwQEAwIFoDAXBgNVHREEEDAOggxz
ZWN1cmVzZXJ2ZXIwDQYJKoZIhvcNAQENBQADggEBAEegMJrJhKZZ5JPlG6DInDYE
45K85+rfXlGaOjQkj3VyoMMwRGkbXoOQ3fYdV1r7HihMsf6L5URIQ8hY8M6l0oEy
bPW0Idgniaf5Tb3713so0GoABirrCr/3JEQReVYn3VzEyfcs5hEGz4Clhngsu/wh
UnE7LJQNcy8czUYDnXg38ZZqKqtiNsMufFFwXlOnMOkMLksQ+N61Pj0gT8TzhffP
z8m92oWl/9G8DPmj4Q6vA4a6lRr3U8n5e/Rr7XAAl6Huje0uzdlpJW20IgECrTFx
FLSFHXSBqT3fohTpCjPK9zS4ttpKGB/aDppzRltUvfdKeaQxCBcQS6AaxQlD/5k=
-----END CERTIFICATE-----
